target datalayout = "e-m:e-p270:32:32-p271:32:32-p272:64:64-i64:64-i128:128-f80:128-n8:16:32:64-S128"
target triple = "x86_64-pc-linux-gnu"

%"class.ZXing::DataMatrix::SymbolInfo" = type { i8, i32, i32, i32, i32, i32, i32, i32 }

@.str = private unnamed_addr constant [42 x i8] c"Cannot handle this number of data regions\00", align 1
@_ZTISt12out_of_range = external constant ptr

; Function Attrs: mustprogress uwtable
define noundef i32 @_ZNK5ZXing10DataMatrix10SymbolInfo19verticalDataRegionsEv(ptr noundef nonnull align 4 dereferenceable(32) %0) #0 align 2 personality ptr @__gxx_personality_v0 {
  %2 = alloca i32, align 4
  %3 = alloca ptr, align 8
  %4 = alloca ptr, align 8
  %5 = alloca i32, align 4
  store ptr %0, ptr %3, align 8, !tbaa !11
  %6 = load ptr, ptr %3, align 8
  %7 = getelementptr inbounds nuw %"class.ZXing::DataMatrix::SymbolInfo", ptr %6, i32 0, i32 5
  %8 = load i32, ptr %7, align 4, !tbaa !23
  switch i32 %8, label %14 [
    i32 1, label %9
    i32 2, label %10
    i32 4, label %11
    i32 16, label %12
    i32 36, label %13
  ]

9:                                                ; preds = %1
  store i32 1, ptr %2, align 4
  br label %21

10:                                               ; preds = %1
  store i32 1, ptr %2, align 4
  br label %21

11:                                               ; preds = %1
  store i32 2, ptr %2, align 4
  br label %21

12:                                               ; preds = %1
  store i32 4, ptr %2, align 4
  br label %21

13:                                               ; preds = %1
  store i32 6, ptr %2, align 4
  br label %21

14:                                               ; preds = %1
  %15 = call ptr @__cxa_allocate_exception(i64 16) #4
  invoke void @_ZNSt12out_of_rangeC1EPKc(ptr noundef nonnull align 8 dereferenceable(16) %15, ptr noundef @.str)
          to label %16 unwind label %17

16:                                               ; preds = %14
  call void @__cxa_throw(ptr %15, ptr @_ZTISt12out_of_range, ptr @_ZNSt12out_of_rangeD1Ev) #5
  unreachable

17:                                               ; preds = %14
  %18 = landingpad { ptr, i32 }
          cleanup
  %19 = extractvalue { ptr, i32 } %18, 0
  store ptr %19, ptr %4, align 8
  %20 = extractvalue { ptr, i32 } %18, 1
  store i32 %20, ptr %5, align 4
  call void @__cxa_free_exception(ptr %15) #4
  br label %23

21:                                               ; preds = %13, %12, %11, %10, %9
  %22 = load i32, ptr %2, align 4
  ret i32 %22

23:                                               ; preds = %17
  %24 = load ptr, ptr %4, align 8
  %25 = load i32, ptr %5, align 4
  %26 = insertvalue { ptr, i32 } poison, ptr %24, 0
  %27 = insertvalue { ptr, i32 } %26, i32 %25, 1
  resume { ptr, i32 } %27
}