; Function Attrs: mustprogress uwtable
define noundef range(i32 1, 7) i32 @_ZNK5ZXing10DataMatrix10SymbolInfo19verticalDataRegionsEv(ptr noundef nonnull readonly align 4 captures(none) dereferenceable(32) %0) local_unnamed_addr #1 align 2 personality ptr @__gxx_personality_v0 {
  %2 = getelementptr inbounds nuw i8, ptr %0, i64 20
  %3 = load i32, ptr %2, align 4, !tbaa !16
  switch i32 %3, label %7 [
    i32 1, label %12
    i32 2, label %12
    i32 4, label %4
    i32 16, label %5
    i32 36, label %6
  ]

4:                                                ; preds = %1
  br label %12

5:                                                ; preds = %1
  br label %12

6:                                                ; preds = %1
  br label %12

7:                                                ; preds = %1
  %8 = tail call ptr @__cxa_allocate_exception(i64 16) #5
  invoke void @_ZNSt12out_of_rangeC1EPKc(ptr noundef nonnull align 8 dereferenceable(16) %8, ptr noundef nonnull @.str)
          to label %9 unwind label %10

9:                                                ; preds = %7
  tail call void @__cxa_throw(ptr nonnull %8, ptr nonnull @_ZTISt12out_of_range, ptr nonnull @_ZNSt12out_of_rangeD1Ev) #6
  unreachable

10:                                               ; preds = %7
  %11 = landingpad { ptr, i32 }
          cleanup
  tail call void @__cxa_free_exception(ptr nonnull %8) #5
  resume { ptr, i32 } %11

12:                                               ; preds = %1, %1, %6, %5, %4
  %.0 = phi i32 [ 6, %6 ], [ 4, %5 ], [ 2, %4 ], [ 1, %1 ], [ 1, %1 ]
  ret i32 %.0
}